target datalayout = "e-m:e-p270:32:32-p271:32:32-p272:64:64-i64:64-i128:128-f80:128-n8:16:32:64-S128"
target triple = "x86_64-pc-linux-gnu"

@.str = private unnamed_addr constant [152 x i8] c"generated/home/dtcxzyw/WorkSpace/Projects/compilers/llvm-opt-benchmark/bench/open3d/Open3D/cpp/tools/ManuallyAlignPointCloud/VisualizerForAlignment.cpp\00", align 1
@__PRETTY_FUNCTION__._ZN6open3d22VisualizerForAlignment19PrintVisualizerHelpEv = private unnamed_addr constant [67 x i8] c"virtual void open3d::VisualizerForAlignment::PrintVisualizerHelp()\00", align 1
@.str.6 = private unnamed_addr constant [26 x i8] c"  -- Alignment control --\00", align 1
@.str.7 = private unnamed_addr constant [61 x i8] c"    Ctrl + R     : Reset source and target to initial state.\00", align 1
@.str.8 = private unnamed_addr constant [68 x i8] c"    Ctrl + S     : Save current alignment session into a JSON file.\00", align 1
@.str.9 = private unnamed_addr constant [68 x i8] c"    Ctrl + O     : Load current alignment session from a JSON file.\00", align 1
@.str.10 = private unnamed_addr constant [69 x i8] c"    Ctrl + A     : Align point clouds based on manually annotations.\00", align 1
@.str.11 = private unnamed_addr constant [39 x i8] c"    Ctrl + I     : Run ICP refinement.\00", align 1
@.str.12 = private unnamed_addr constant [68 x i8] c"    Ctrl + D     : Run voxel downsample for both source and target.\00", align 1
@.str.13 = private unnamed_addr constant [68 x i8] c"    Ctrl + K     : Load a polygon from a JSON file and crop source.\00", align 1
@.str.14 = private unnamed_addr constant [53 x i8] c"    Ctrl + E     : Evaluate error and save to files.\00", align 1

; Function Attrs: mustprogress ssp uwtable
define dso_local void @_ZN6open3d22VisualizerForAlignment19PrintVisualizerHelpEv(ptr noundef nonnull align 16 dereferenceable(960) %0) unnamed_addr #3 align 2 {
  %2 = alloca ptr, align 8
  store ptr %0, ptr %2, align 8, !tbaa !35
  %3 = load ptr, ptr %2, align 8
  call void @_ZN6open3d13visualization10Visualizer19PrintVisualizerHelpEv(ptr noundef nonnull align 8 dereferenceable(456) %3)
  call void @_ZN6open3d7utility6Logger8LogInfo_IJEEEvPKciS4_S4_DpOT_(ptr noundef @.str, i32 noundef 17, ptr noundef @__PRETTY_FUNCTION__._ZN6open3d22VisualizerForAlignment19PrintVisualizerHelpEv, ptr noundef @.str.6)
  call void @_ZN6open3d7utility6Logger8LogInfo_IJEEEvPKciS4_S4_DpOT_(ptr noundef @.str, i32 noundef 18, ptr noundef @__PRETTY_FUNCTION__._ZN6open3d22VisualizerForAlignment19PrintVisualizerHelpEv, ptr noundef @.str.7)
  call void @_ZN6open3d7utility6Logger8LogInfo_IJEEEvPKciS4_S4_DpOT_(ptr noundef @.str, i32 noundef 19, ptr noundef @__PRETTY_FUNCTION__._ZN6open3d22VisualizerForAlignment19PrintVisualizerHelpEv, ptr noundef @.str.8)
  call void @_ZN6open3d7utility6Logger8LogInfo_IJEEEvPKciS4_S4_DpOT_(ptr noundef @.str, i32 noundef 20, ptr noundef @__PRETTY_FUNCTION__._ZN6open3d22VisualizerForAlignment19PrintVisualizerHelpEv, ptr noundef @.str.9)
  call void @_ZN6open3d7utility6Logger8LogInfo_IJEEEvPKciS4_S4_DpOT_(ptr noundef @.str, i32 noundef 21, ptr noundef @__PRETTY_FUNCTION__._ZN6open3d22VisualizerForAlignment19PrintVisualizerHelpEv, ptr noundef @.str.10)
  call void @_ZN6open3d7utility6Logger8LogInfo_IJEEEvPKciS4_S4_DpOT_(ptr noundef @.str, i32 noundef 22, ptr noundef @__PRETTY_FUNCTION__._ZN6open3d22VisualizerForAlignment19PrintVisualizerHelpEv, ptr noundef @.str.11)
  call void @_ZN6open3d7utility6Logger8LogInfo_IJEEEvPKciS4_S4_DpOT_(ptr noundef @.str, i32 noundef 23, ptr noundef @__PRETTY_FUNCTION__._ZN6open3d22VisualizerForAlignment19PrintVisualizerHelpEv, ptr noundef @.str.12)
  call void @_ZN6open3d7utility6Logger8LogInfo_IJEEEvPKciS4_S4_DpOT_(ptr noundef @.str, i32 noundef 24, ptr noundef @__PRETTY_FUNCTION__._ZN6open3d22VisualizerForAlignment19PrintVisualizerHelpEv, ptr noundef @.str.13)
  call void @_ZN6open3d7utility6Logger8LogInfo_IJEEEvPKciS4_S4_DpOT_(ptr noundef @.str, i32 noundef 25, ptr noundef @__PRETTY_FUNCTION__._ZN6open3d22VisualizerForAlignment19PrintVisualizerHelpEv, ptr noundef @.str.14)
  ret void
}