; Function Attrs: mustprogress ssp uwtable
define dso_local void @_ZN6open3d22VisualizerForAlignment19PrintVisualizerHelpEv(ptr noundef nonnull align 16 dereferenceable(960) %0) unnamed_addr #4 align 2 {
  tail call void @_ZN6open3d13visualization10Visualizer19PrintVisualizerHelpEv(ptr noundef nonnull align 8 dereferenceable(456) %0)
  tail call void @_ZN6open3d7utility6Logger8LogInfo_IJEEEvPKciS4_S4_DpOT_(ptr noundef nonnull @.str, i32 noundef 17, ptr noundef nonnull @__PRETTY_FUNCTION__._ZN6open3d22VisualizerForAlignment19PrintVisualizerHelpEv, ptr noundef nonnull @.str.6)
  tail call void @_ZN6open3d7utility6Logger8LogInfo_IJEEEvPKciS4_S4_DpOT_(ptr noundef nonnull @.str, i32 noundef 18, ptr noundef nonnull @__PRETTY_FUNCTION__._ZN6open3d22VisualizerForAlignment19PrintVisualizerHelpEv, ptr noundef nonnull @.str.7)
  tail call void @_ZN6open3d7utility6Logger8LogInfo_IJEEEvPKciS4_S4_DpOT_(ptr noundef nonnull @.str, i32 noundef 19, ptr noundef nonnull @__PRETTY_FUNCTION__._ZN6open3d22VisualizerForAlignment19PrintVisualizerHelpEv, ptr noundef nonnull @.str.8)
  tail call void @_ZN6open3d7utility6Logger8LogInfo_IJEEEvPKciS4_S4_DpOT_(ptr noundef nonnull @.str, i32 noundef 20, ptr noundef nonnull @__PRETTY_FUNCTION__._ZN6open3d22VisualizerForAlignment19PrintVisualizerHelpEv, ptr noundef nonnull @.str.9)
  tail call void @_ZN6open3d7utility6Logger8LogInfo_IJEEEvPKciS4_S4_DpOT_(ptr noundef nonnull @.str, i32 noundef 21, ptr noundef nonnull @__PRETTY_FUNCTION__._ZN6open3d22VisualizerForAlignment19PrintVisualizerHelpEv, ptr noundef nonnull @.str.10)
  tail call void @_ZN6open3d7utility6Logger8LogInfo_IJEEEvPKciS4_S4_DpOT_(ptr noundef nonnull @.str, i32 noundef 22, ptr noundef nonnull @__PRETTY_FUNCTION__._ZN6open3d22VisualizerForAlignment19PrintVisualizerHelpEv, ptr noundef nonnull @.str.11)
  tail call void @_ZN6open3d7utility6Logger8LogInfo_IJEEEvPKciS4_S4_DpOT_(ptr noundef nonnull @.str, i32 noundef 23, ptr noundef nonnull @__PRETTY_FUNCTION__._ZN6open3d22VisualizerForAlignment19PrintVisualizerHelpEv, ptr noundef nonnull @.str.12)
  tail call void @_ZN6open3d7utility6Logger8LogInfo_IJEEEvPKciS4_S4_DpOT_(ptr noundef nonnull @.str, i32 noundef 24, ptr noundef nonnull @__PRETTY_FUNCTION__._ZN6open3d22VisualizerForAlignment19PrintVisualizerHelpEv, ptr noundef nonnull @.str.13)
  tail call void @_ZN6open3d7utility6Logger8LogInfo_IJEEEvPKciS4_S4_DpOT_(ptr noundef nonnull @.str, i32 noundef 25, ptr noundef nonnull @__PRETTY_FUNCTION__._ZN6open3d22VisualizerForAlignment19PrintVisualizerHelpEv, ptr noundef nonnull @.str.14)
  ret void
}